; Function Attrs: mustprogress nofree norecurse nosync nounwind willreturn memory(read, argmem: readwrite, inaccessiblemem: none) uwtable
define hidden noundef zeroext i1 @_ZNK13proof_checker11match_equivEPK4exprRPS0_S4_(ptr nocapture nonnull readnone align 8 %this, ptr nocapture noundef readonly %e, ptr nocapture noundef nonnull writeonly align 8 dereferenceable(8) %t1, ptr nocapture noundef nonnull writeonly align 8 dereferenceable(8) %t2) local_unnamed_addr #9 align 2 {
entry:
  %m_kind.i.i.i = getelementptr inbounds i8, ptr %e, i64 4
  %bf.load.i.i.i = load i32, ptr %m_kind.i.i.i, align 4
  %bf.clear.i.i.i = and i32 %bf.load.i.i.i, 65535
  %cmp.i.i = icmp eq i32 %bf.clear.i.i.i, 0
  br i1 %cmp.i.i, label %land.lhs.true.i.i, label %lor.end

land.lhs.true.i.i:                                ; preds = %entry
  %m_decl.i.i.i.i = getelementptr inbounds i8, ptr %e, i64 16
  %0 = load ptr, ptr %m_decl.i.i.i.i, align 8
  %m_info.i.i.i.i = getelementptr inbounds i8, ptr %0, i64 24
  %1 = load ptr, ptr %m_info.i.i.i.i, align 8
  %cmp.i.i.i.i = icmp eq ptr %1, null
  br i1 %cmp.i.i.i.i, label %land.lhs.true.i.i9, label %_ZNK3app13get_family_idEv.exit.i.i

_ZNK3app13get_family_idEv.exit.i.i:               ; preds = %land.lhs.true.i.i
  %2 = load i32, ptr %1, align 8
  %cmp5.i.i = icmp eq i32 %2, 0
  br i1 %cmp5.i.i, label %_ZNK3app13get_decl_kindEv.exit.i.i, label %land.lhs.true.i.i9

_ZNK3app13get_decl_kindEv.exit.i.i:               ; preds = %_ZNK3app13get_family_idEv.exit.i.i
  %m_kind.i.i.i.i.i = getelementptr inbounds i8, ptr %1, i64 4
  %3 = load i32, ptr %m_kind.i.i.i.i.i, align 4
  %cmp9.i.i = icmp eq i32 %3, 10
  br i1 %cmp9.i.i, label %land.lhs.true10.i.i, label %land.lhs.true.i.i9

land.lhs.true10.i.i:                              ; preds = %_ZNK3app13get_decl_kindEv.exit.i.i
  %m_num_args.i.i.i = getelementptr inbounds i8, ptr %e, i64 24
  %4 = load i32, ptr %m_num_args.i.i.i, align 8
  %cmp13.i.i = icmp eq i32 %4, 2
  br i1 %cmp13.i.i, label %lor.end.sink.split, label %land.lhs.true.i.i9

land.lhs.true.i.i9:                               ; preds = %land.lhs.true10.i.i, %_ZNK3app13get_decl_kindEv.exit.i.i, %_ZNK3app13get_family_idEv.exit.i.i, %land.lhs.true.i.i
  %m_decl.i.i.i.i10 = getelementptr inbounds i8, ptr %e, i64 16
  %5 = load ptr, ptr %m_decl.i.i.i.i10, align 8
  %m_info.i.i.i.i11 = getelementptr inbounds i8, ptr %5, i64 24
  %6 = load ptr, ptr %m_info.i.i.i.i11, align 8
  %cmp.i.i.i.i12 = icmp eq ptr %6, null
  br i1 %cmp.i.i.i.i12, label %lor.end, label %_ZNK3app13get_family_idEv.exit.i.i13

_ZNK3app13get_family_idEv.exit.i.i13:             ; preds = %land.lhs.true.i.i9
  %7 = load i32, ptr %6, align 8
  %cmp5.i.i14 = icmp eq i32 %7, 0
  br i1 %cmp5.i.i14, label %_ZNK3app13get_decl_kindEv.exit.i.i15, label %lor.end

_ZNK3app13get_decl_kindEv.exit.i.i15:             ; preds = %_ZNK3app13get_family_idEv.exit.i.i13
  %m_kind.i.i.i.i.i16 = getelementptr inbounds i8, ptr %6, i64 4
  %8 = load i32, ptr %m_kind.i.i.i.i.i16, align 4
  %cmp9.i.i17 = icmp eq i32 %8, 2
  br i1 %cmp9.i.i17, label %land.lhs.true10.i.i18, label %lor.end

land.lhs.true10.i.i18:                            ; preds = %_ZNK3app13get_decl_kindEv.exit.i.i15
  %m_num_args.i.i.i19 = getelementptr inbounds i8, ptr %e, i64 24
  %9 = load i32, ptr %m_num_args.i.i.i19, align 8
  %cmp13.i.i20 = icmp eq i32 %9, 2
  br i1 %cmp13.i.i20, label %lor.end.sink.split, label %lor.end

lor.end.sink.split:                               ; preds = %land.lhs.true10.i.i18, %land.lhs.true10.i.i
  %m_args.i.i.i22 = getelementptr inbounds i8, ptr %e, i64 32
  %10 = load ptr, ptr %m_args.i.i.i22, align 8
  store ptr %10, ptr %t1, align 8
  %arrayidx.i.i.i23 = getelementptr inbounds i8, ptr %e, i64 40
  %11 = load ptr, ptr %arrayidx.i.i.i23, align 8
  store ptr %11, ptr %t2, align 8
  br label %lor.end

lor.end:                                          ; preds = %lor.end.sink.split, %entry, %land.lhs.true10.i.i18, %_ZNK3app13get_decl_kindEv.exit.i.i15, %_ZNK3app13get_family_idEv.exit.i.i13, %land.lhs.true.i.i9
  %12 = phi i1 [ false, %land.lhs.true10.i.i18 ], [ false, %_ZNK3app13get_decl_kindEv.exit.i.i15 ], [ false, %_ZNK3app13get_family_idEv.exit.i.i13 ], [ false, %land.lhs.true.i.i9 ], [ false, %entry ], [ true, %lor.end.sink.split ]
  ret i1 %12
}